; Function Attrs: mustprogress nounwind uwtable
define dso_local void @_ZN28btHashedOverlappingPairCacheD0Ev(ptr noundef nonnull align 8 dereferenceable(120) %this) unnamed_addr #1 align 2 personality ptr @__gxx_personality_v0 {
entry:
  tail call void @_ZN28btHashedOverlappingPairCacheD2Ev(ptr noundef nonnull align 8 dereferenceable(120) %this) #12
  invoke void @_Z21btAlignedFreeInternalPv(ptr noundef nonnull %this)
          to label %_ZN28btHashedOverlappingPairCachedlEPv.exit unwind label %terminate.lpad.i

terminate.lpad.i:                                 ; preds = %entry
  %0 = landingpad { ptr, i32 }
          catch ptr null
  %1 = extractvalue { ptr, i32 } %0, 0
  tail call void @__clang_call_terminate(ptr %1) #13
  unreachable

_ZN28btHashedOverlappingPairCachedlEPv.exit:      ; preds = %entry
  ret void
}